target datalayout = "e-m:e-p270:32:32-p271:32:32-p272:64:64-i64:64-i128:128-f80:128-n8:16:32:64-S128"
target triple = "x86_64-unknown-linux-gnu"

; Function Attrs: mustprogress nounwind uwtable
define hidden void @_ZN6hermes13SwitchImmInst12setSuccessorEjPNS_10BasicBlockE(ptr noundef nonnull align 8 dereferenceable(132) %this, i32 noundef %idx, ptr noundef %B) #0 align 2 {
entry:
  %this.addr = alloca ptr, align 8
  %idx.addr = alloca i32, align 4
  %B.addr = alloca ptr, align 8
  store ptr %this, ptr %this.addr, align 8
  store i32 %idx, ptr %idx.addr, align 4
  store ptr %B, ptr %B.addr, align 8
  %this1 = load ptr, ptr %this.addr, align 8
  %0 = load i32, ptr %idx.addr, align 4
  %cmp = icmp eq i32 %0, 0
  br i1 %cmp, label %if.then, label %if.end

if.then:                                          ; preds = %entry
  %1 = load ptr, ptr %B.addr, align 8
  %2 = icmp eq ptr %1, null
  br i1 %2, label %cast.end, label %cast.notnull

cast.notnull:                                     ; preds = %if.then
  %add.ptr = getelementptr inbounds i8, ptr %1, i64 16
  br label %cast.end

cast.end:                                         ; preds = %cast.notnull, %if.then
  %cast.result = phi ptr [ %add.ptr, %cast.notnull ], [ null, %if.then ]
  call void @_ZN6hermes11Instruction10setOperandEPNS_5ValueEj(ptr noundef nonnull align 8 dereferenceable(132) %this1, ptr noundef %cast.result, i32 noundef 1)
  br label %return

if.end:                                           ; preds = %entry
  %3 = load ptr, ptr %B.addr, align 8
  %4 = icmp eq ptr %3, null
  br i1 %4, label %cast.end4, label %cast.notnull2

cast.notnull2:                                    ; preds = %if.end
  %add.ptr3 = getelementptr inbounds i8, ptr %3, i64 16
  br label %cast.end4

cast.end4:                                        ; preds = %cast.notnull2, %if.end
  %cast.result5 = phi ptr [ %add.ptr3, %cast.notnull2 ], [ null, %if.end ]
  %5 = load i32, ptr %idx.addr, align 4
  %sub = sub i32 %5, 1
  %mul = mul i32 %sub, 2
  %add = add i32 4, %mul
  %add6 = add i32 %add, 1
  call void @_ZN6hermes11Instruction10setOperandEPNS_5ValueEj(ptr noundef nonnull align 8 dereferenceable(132) %this1, ptr noundef %cast.result5, i32 noundef %add6)
  br label %return

return:                                           ; preds = %cast.end4, %cast.end
  ret void
}