; Function Attrs: mustprogress nounwind uwtable
define hidden void @_ZN6hermes13SwitchImmInst12setSuccessorEjPNS_10BasicBlockE(ptr noundef nonnull align 8 dereferenceable(132) %this, i32 noundef %idx, ptr noundef %B) local_unnamed_addr #0 align 2 {
entry:
  %cmp = icmp eq i32 %idx, 0
  %0 = icmp eq ptr %B, null
  %add.ptr = getelementptr inbounds nuw i8, ptr %B, i64 16
  %spec.select = select i1 %0, ptr null, ptr %add.ptr
  %sub = shl i32 %idx, 1
  %add6 = add i32 %sub, 3
  %add6.sink = select i1 %cmp, i32 1, i32 %add6
  tail call void @_ZN6hermes11Instruction10setOperandEPNS_5ValueEj(ptr noundef nonnull align 8 dereferenceable(132) %this, ptr noundef %spec.select, i32 noundef %add6.sink) #15
  ret void
}